; Function Attrs: mustprogress uwtable
define void @_ZN6google8protobuf8compiler21CodeGeneratorResponse12InternalSwapEPS2_(ptr noundef nonnull align 8 dereferenceable(72) %this, ptr noalias noundef %other) local_unnamed_addr #3 align 2 {
entry:
  %_internal_metadata_.i = getelementptr inbounds i8, ptr %this, i64 8
  %0 = load i64, ptr %_internal_metadata_.i, align 8
  %_internal_metadata_3 = getelementptr inbounds i8, ptr %other, i64 8
  %1 = load i64, ptr %_internal_metadata_3, align 8
  store i64 %1, ptr %_internal_metadata_.i, align 8
  store i64 %0, ptr %_internal_metadata_3, align 8
  %2 = getelementptr inbounds i8, ptr %this, i64 16
  %3 = getelementptr inbounds i8, ptr %other, i64 16
  %4 = load i32, ptr %2, align 8
  %5 = load i32, ptr %3, align 4
  store i32 %5, ptr %2, align 8
  store i32 %4, ptr %3, align 4
  %file_ = getelementptr inbounds i8, ptr %this, i64 24
  %file_7 = getelementptr inbounds i8, ptr %other, i64 24
  tail call void @_ZN6google8protobuf8internal7memswapILm16EEEvPcS3_(ptr noundef nonnull %file_, ptr noundef nonnull %file_7)
  %error_ = getelementptr inbounds i8, ptr %this, i64 48
  %error_8 = getelementptr inbounds i8, ptr %other, i64 48
  %__tmp.sroa.0.0.copyload.i = load ptr, ptr %error_8, align 8
  %6 = load i64, ptr %error_, align 8
  store i64 %6, ptr %error_8, align 8
  store ptr %__tmp.sroa.0.0.copyload.i, ptr %error_, align 8
  %supported_features_ = getelementptr inbounds i8, ptr %this, i64 56
  %supported_features_9 = getelementptr inbounds i8, ptr %other, i64 56
  tail call void @_ZN6google8protobuf8internal7memswapILm16EEEvPcS3_(ptr noundef nonnull %supported_features_, ptr noundef nonnull %supported_features_9)
  ret void
}